target datalayout = "e-m:e-p270:32:32-p271:32:32-p272:64:64-i64:64-i128:128-f80:128-n8:16:32:64-S128"
target triple = "x86_64-pc-linux-gnu"

@.str.42 = private unnamed_addr constant [4 x i8] c"\0D\0A\22\00", align 1
@.str.43 = private unnamed_addr constant [3 x i8] c"\\.\00", align 1

; Function Attrs: nounwind uwtable
define internal void @csv_escaped_print(ptr noundef %0, ptr noundef %1) #0 {
  %3 = alloca ptr, align 8
  %4 = alloca ptr, align 8
  %5 = alloca ptr, align 8
  store ptr %0, ptr %3, align 8
  store ptr %1, ptr %4, align 8
  call void @llvm.lifetime.start.p0(i64 8, ptr %5) #8
  %6 = load ptr, ptr %4, align 8
  %7 = call i32 @fputc(i32 noundef 34, ptr noundef %6)
  %8 = load ptr, ptr %3, align 8
  store ptr %8, ptr %5, align 8
  br label %9

9:                                                ; preds = %27, %2
  %10 = load ptr, ptr %5, align 8
  %11 = load i8, ptr %10, align 1
  %12 = icmp ne i8 %11, 0
  br i1 %12, label %13, label %30

13:                                               ; preds = %9
  %14 = load ptr, ptr %5, align 8
  %15 = load i8, ptr %14, align 1
  %16 = sext i8 %15 to i32
  %17 = icmp eq i32 %16, 34
  br i1 %17, label %18, label %21

18:                                               ; preds = %13
  %19 = load ptr, ptr %4, align 8
  %20 = call i32 @fputc(i32 noundef 34, ptr noundef %19)
  br label %21

21:                                               ; preds = %18, %13
  %22 = load ptr, ptr %5, align 8
  %23 = load i8, ptr %22, align 1
  %24 = sext i8 %23 to i32
  %25 = load ptr, ptr %4, align 8
  %26 = call i32 @fputc(i32 noundef %24, ptr noundef %25)
  br label %27

27:                                               ; preds = %21
  %28 = load ptr, ptr %5, align 8
  %29 = getelementptr inbounds nuw i8, ptr %28, i32 1
  store ptr %29, ptr %5, align 8
  br label %9, !llvm.loop !80

30:                                               ; preds = %9
  %31 = load ptr, ptr %4, align 8
  %32 = call i32 @fputc(i32 noundef 34, ptr noundef %31)
  call void @llvm.lifetime.end.p0(i64 8, ptr %5) #8
  ret void
}

; Function Attrs: nounwind uwtable
define internal void @csv_print_field(ptr noundef %0, ptr noundef %1, i8 noundef signext %2) #0 {
  %4 = alloca ptr, align 8
  %5 = alloca ptr, align 8
  %6 = alloca i8, align 1
  store ptr %0, ptr %4, align 8
  store ptr %1, ptr %5, align 8
  store i8 %2, ptr %6, align 1
  %7 = load ptr, ptr %4, align 8
  %8 = load i8, ptr %6, align 1
  %9 = sext i8 %8 to i32
  %10 = call ptr @strchr(ptr noundef %7, i32 noundef %9) #9
  %11 = icmp ne ptr %10, null
  br i1 %11, label %30, label %12

12:                                               ; preds = %3
  %13 = load ptr, ptr %4, align 8
  %14 = call i64 @strcspn(ptr noundef %13, ptr noundef @.str.42) #9
  %15 = load ptr, ptr %4, align 8
  %16 = call i64 @strlen(ptr noundef %15) #9
  %17 = icmp ne i64 %14, %16
  br i1 %17, label %30, label %18

18:                                               ; preds = %12
  %19 = load ptr, ptr %4, align 8
  %20 = call i32 @strcmp(ptr noundef %19, ptr noundef @.str.43) #9
  %21 = icmp eq i32 %20, 0
  br i1 %21, label %30, label %22

22:                                               ; preds = %18
  %23 = load i8, ptr %6, align 1
  %24 = sext i8 %23 to i32
  %25 = icmp eq i32 %24, 92
  br i1 %25, label %30, label %26

26:                                               ; preds = %22
  %27 = load i8, ptr %6, align 1
  %28 = sext i8 %27 to i32
  %29 = icmp eq i32 %28, 46
  br i1 %29, label %30, label %33

30:                                               ; preds = %26, %22, %18, %12, %3
  %31 = load ptr, ptr %4, align 8
  %32 = load ptr, ptr %5, align 8
  call void @csv_escaped_print(ptr noundef %31, ptr noundef %32)
  br label %37

33:                                               ; preds = %26
  %34 = load ptr, ptr %4, align 8
  %35 = load ptr, ptr %5, align 8
  %36 = call i32 @fputs(ptr noundef %34, ptr noundef %35)
  br label %37

37:                                               ; preds = %33, %30
  ret void
}