; Function Attrs: nofree nounwind uwtable
define internal fastcc void @csv_print_field(ptr noundef readonly %0, ptr noundef captures(none) %1, i8 noundef signext %2) unnamed_addr #0 {
  %4 = sext i8 %2 to i32
  %5 = tail call ptr @strchr(ptr noundef nonnull dereferenceable(1) %0, i32 noundef %4) #20
  %.not = icmp eq ptr %5, null
  br i1 %.not, label %6, label %15

6:                                                ; preds = %3
  %7 = tail call i64 @strcspn(ptr noundef nonnull %0, ptr noundef nonnull @.str.42) #20
  %8 = tail call i64 @strlen(ptr noundef nonnull dereferenceable(1) %0) #20
  %.not15 = icmp eq i64 %7, %8
  br i1 %.not15, label %sub_0, label %15

sub_0:                                            ; preds = %6
  %9 = load i8, ptr %0, align 1
  %.not16 = icmp eq i8 %9, 92
  br i1 %.not16, label %sub_1, label %switch.early.test

sub_1:                                            ; preds = %sub_0
  %10 = getelementptr inbounds nuw i8, ptr %0, i64 1
  %11 = load i8, ptr %10, align 1
  %.not17 = icmp eq i8 %11, 46
  br i1 %.not17, label %.tail, label %switch.early.test

.tail:                                            ; preds = %sub_1
  %12 = getelementptr inbounds nuw i8, ptr %0, i64 2
  %13 = load i8, ptr %12, align 1
  %.fr = freeze i8 %13
  %14 = icmp eq i8 %.fr, 0
  br i1 %14, label %15, label %switch.early.test

switch.early.test:                                ; preds = %sub_1, %sub_0, %.tail
  switch i8 %2, label %27 [
    i8 92, label %15
    i8 46, label %15
  ]

15:                                               ; preds = %switch.early.test, %switch.early.test, %.tail, %6, %3
  %16 = tail call i32 @fputc(i32 noundef 34, ptr noundef %1)
  br label %17

17:                                               ; preds = %21, %15
  %.0.i = phi ptr [ %0, %15 ], [ %25, %21 ]
  %18 = load i8, ptr %.0.i, align 1
  switch i8 %18, label %21 [
    i8 0, label %csv_escaped_print.exit
    i8 34, label %19
  ]

19:                                               ; preds = %17
  %20 = tail call i32 @fputc(i32 noundef 34, ptr noundef %1)
  %.pre.i = load i8, ptr %.0.i, align 1
  br label %21

21:                                               ; preds = %19, %17
  %22 = phi i8 [ %18, %17 ], [ %.pre.i, %19 ]
  %23 = sext i8 %22 to i32
  %24 = tail call i32 @fputc(i32 noundef %23, ptr noundef %1)
  %25 = getelementptr inbounds nuw i8, ptr %.0.i, i64 1
  br label %17, !llvm.loop !81

csv_escaped_print.exit:                           ; preds = %17
  %26 = tail call i32 @fputc(i32 noundef 34, ptr noundef %1)
  br label %29

27:                                               ; preds = %switch.early.test
  %28 = tail call i32 @fputs(ptr noundef nonnull %0, ptr noundef %1)
  br label %29

29:                                               ; preds = %27, %csv_escaped_print.exit
  ret void
}